; ModuleID = '40/2391.c'
source_filename = "40/2391.c"
target datalayout = "e-m:e-p270:32:32-p271:32:32-p272:64:64-i64:64-f80:128-n8:16:32:64-S128"
target triple = "x86_64-pc-linux-gnu"

@.str = private unnamed_addr constant [20 x i8] c"%lf\0A%lf\0A%lf\0A%lf\0A%lf\00", align 1
@.str.1 = private unnamed_addr constant [14 x i8] c"Invalid input\00", align 1
@.str.2 = private unnamed_addr constant [6 x i8] c"%.4lf\00", align 1

; Function Attrs: noinline nounwind uwtable
define dso_local i32 @main() #0 {
  %1 = alloca i32, align 4
  %2 = alloca double, align 8
  %3 = alloca double, align 8
  %4 = alloca double, align 8
  %5 = alloca double, align 8
  %6 = alloca double, align 8
  %7 = alloca double, align 8
  %8 = alloca double, align 8
  store i32 0, i32* %1, align 4
  %9 = call i32 (i8*, ...) @__isoc99_scanf(i8* getelementptr inbounds ([20 x i8], [20 x i8]* @.str, i64 0, i64 0), double* %2, double* %3, double* %4, double* %5, double* %6)
  %10 = load double, double* %2, align 8
  %11 = load double, double* %3, align 8
  %12 = fadd double %10, %11
  %13 = load double, double* %4, align 8
  %14 = fadd double %12, %13
  %15 = load double, double* %5, align 8
  %16 = fadd double %14, %15
  %17 = fdiv double %16, 2.000000e+00
  store double %17, double* %7, align 8
  %18 = load double, double* %7, align 8
  %19 = load double, double* %2, align 8
  %20 = fsub double %18, %19
  %21 = load double, double* %7, align 8
  %22 = load double, double* %3, align 8
  %23 = fsub double %21, %22
  %24 = fmul double %20, %23
  %25 = load double, double* %7, align 8
  %26 = load double, double* %4, align 8
  %27 = fsub double %25, %26
  %28 = fmul double %24, %27
  %29 = load double, double* %7, align 8
  %30 = load double, double* %5, align 8
  %31 = fsub double %29, %30
  %32 = fmul double %28, %31
  %33 = load double, double* %2, align 8
  %34 = load double, double* %3, align 8
  %35 = fmul double %33, %34
  %36 = load double, double* %4, align 8
  %37 = fmul double %35, %36
  %38 = load double, double* %5, align 8
  %39 = fmul double %37, %38
  %40 = load double, double* %6, align 8
  %41 = fmul double %40, 1.000000e+02
  %42 = fdiv double %41, 3.600000e+02
  %43 = call double @cos(double %42) #3
  %44 = fmul double %39, %43
  %45 = load double, double* %6, align 8
  %46 = fmul double %45, 1.000000e+02
  %47 = fdiv double %46, 3.600000e+02
  %48 = call double @cos(double %47) #3
  %49 = fmul double %44, %48
  %50 = fsub double %32, %49
  %51 = call double @sqrt(double %50) #3
  store double %51, double* %8, align 8
  %52 = load double, double* %7, align 8
  %53 = load double, double* %2, align 8
  %54 = fsub double %52, %53
  %55 = load double, double* %7, align 8
  %56 = load double, double* %3, align 8
  %57 = fsub double %55, %56
  %58 = fmul double %54, %57
  %59 = load double, double* %7, align 8
  %60 = load double, double* %4, align 8
  %61 = fsub double %59, %60
  %62 = fmul double %58, %61
  %63 = load double, double* %7, align 8
  %64 = load double, double* %5, align 8
  %65 = fsub double %63, %64
  %66 = fmul double %62, %65
  %67 = load double, double* %2, align 8
  %68 = load double, double* %3, align 8
  %69 = fmul double %67, %68
  %70 = load double, double* %4, align 8
  %71 = fmul double %69, %70
  %72 = load double, double* %5, align 8
  %73 = fmul double %71, %72
  %74 = load double, double* %6, align 8
  %75 = fmul double %74, 1.000000e+02
  %76 = fdiv double %75, 3.600000e+02
  %77 = call double @cos(double %76) #3
  %78 = fmul double %73, %77
  %79 = load double, double* %6, align 8
  %80 = fmul double %79, 1.000000e+02
  %81 = fdiv double %80, 3.600000e+02
  %82 = call double @cos(double %81) #3
  %83 = fmul double %78, %82
  %84 = fcmp olt double %66, %83
  br i1 %84, label %85, label %87

85:                                               ; preds = %0
  %86 = call i32 (i8*, ...) @printf(i8* getelementptr inbounds ([14 x i8], [14 x i8]* @.str.1, i64 0, i64 0))
  br label %90

87:                                               ; preds = %0
  %88 = load double, double* %8, align 8
  %89 = call i32 (i8*, ...) @printf(i8* getelementptr inbounds ([6 x i8], [6 x i8]* @.str.2, i64 0, i64 0), double %88)
  br label %90

90:                                               ; preds = %87, %85
  ret i32 0
}

declare dso_local i32 @__isoc99_scanf(i8*, ...) #1

; Function Attrs: nounwind
declare dso_local double @sqrt(double) #2

; Function Attrs: nounwind
declare dso_local double @cos(double) #2

declare dso_local i32 @printf(i8*, ...) #1


!llvm.module.flags = !{!0}
!llvm.ident = !{!1}

!0 = !{i32 1, !"wchar_size", i32 4}
!1 = !{!"clang version 10.0.0-4ubuntu1 "}
